target datalayout = "e-m:e-p270:32:32-p271:32:32-p272:64:64-i64:64-i128:128-f80:128-n8:16:32:64-S128"
target triple = "x86_64-pc-linux-gnu"

%struct.AVProbeData = type { ptr, ptr, i32, ptr }

; Function Attrs: nounwind uwtable
define internal i32 @siff_probe(ptr noundef %0) #0 {
  %2 = alloca i32, align 4
  %3 = alloca ptr, align 8
  %4 = alloca i32, align 4
  %5 = alloca i32, align 4
  store ptr %0, ptr %3, align 8, !tbaa !4
  call void @llvm.lifetime.start.p0(i64 4, ptr %4) #4
  %6 = load ptr, ptr %3, align 8, !tbaa !4
  %7 = getelementptr inbounds nuw %struct.AVProbeData, ptr %6, i32 0, i32 1
  %8 = load ptr, ptr %7, align 8, !tbaa !9
  %9 = getelementptr inbounds i8, ptr %8, i64 8
  %10 = load i32, ptr %9, align 1, !tbaa !13
  store i32 %10, ptr %4, align 4, !tbaa !14
  %11 = load ptr, ptr %3, align 8, !tbaa !4
  %12 = getelementptr inbounds nuw %struct.AVProbeData, ptr %11, i32 0, i32 1
  %13 = load ptr, ptr %12, align 8, !tbaa !9
  %14 = load i32, ptr %13, align 1, !tbaa !13
  %15 = icmp ne i32 %14, 1179011411
  br i1 %15, label %22, label %16

16:                                               ; preds = %1
  %17 = load i32, ptr %4, align 4, !tbaa !14
  %18 = icmp ne i32 %17, 827736662
  br i1 %18, label %19, label %23

19:                                               ; preds = %16
  %20 = load i32, ptr %4, align 4, !tbaa !14
  %21 = icmp ne i32 %20, 1314213715
  br i1 %21, label %22, label %23

22:                                               ; preds = %19, %1
  store i32 0, ptr %2, align 4
  store i32 1, ptr %5, align 4
  br label %24

23:                                               ; preds = %19, %16
  store i32 100, ptr %2, align 4
  store i32 1, ptr %5, align 4
  br label %24

24:                                               ; preds = %23, %22
  call void @llvm.lifetime.end.p0(i64 4, ptr %4) #4
  %25 = load i32, ptr %2, align 4
  ret i32 %25
}