; Function Attrs: mustprogress nofree norecurse nosync nounwind willreturn memory(read, inaccessiblemem: none) uwtable
define internal range(i32 0, 101) i32 @siff_probe(ptr noundef readonly captures(none) %0) #0 {
  %2 = getelementptr inbounds nuw i8, ptr %0, i64 8
  %3 = load ptr, ptr %2, align 8, !tbaa !4
  %4 = load i32, ptr %3, align 1, !tbaa !11
  %.not = icmp eq i32 %4, 1179011411
  br i1 %.not, label %5, label %9

5:                                                ; preds = %1
  %6 = getelementptr inbounds nuw i8, ptr %3, i64 8
  %7 = load i32, ptr %6, align 1, !tbaa !11
  %switch.selectcmp.case1 = icmp eq i32 %7, 1314213715
  %switch.selectcmp.case2 = icmp eq i32 %7, 827736662
  %switch.selectcmp = or i1 %switch.selectcmp.case1, %switch.selectcmp.case2
  %8 = select i1 %switch.selectcmp, i32 100, i32 0
  br label %9

9:                                                ; preds = %5, %1
  %.0 = phi i32 [ 0, %1 ], [ %8, %5 ]
  ret i32 %.0
}